target datalayout = "e-m:e-p270:32:32-p271:32:32-p272:64:64-i64:64-i128:128-f80:128-n8:16:32:64-S128"
target triple = "x86_64-pc-linux-gnu"

%struct.expert_field = type { i32, i32 }
%struct._RMPP = type { i8, i8, i8, i8, i32, i32 }

@hf_opa_reserved32 = internal global i32 0, align 4
@hf_opa_rmpp = internal global i32 0, align 4
@hf_opa_rmpp_version = internal global i32 0, align 4
@hf_opa_rmpp_type = internal global i32 0, align 4
@hf_opa_rmpp_r_resp_time = internal global i32 0, align 4
@hf_opa_rmpp_flags_last = internal global i32 0, align 4
@hf_opa_rmpp_flags_first = internal global i32 0, align 4
@hf_opa_rmpp_flags_active = internal global i32 0, align 4
@hf_opa_rmpp_status = internal global i32 0, align 4
@hf_opa_rmpp_data1 = internal global i32 0, align 4
@hf_opa_rmpp_data2 = internal global i32 0, align 4
@hf_opa_rmpp_segment_number = internal global i32 0, align 4
@hf_opa_rmpp_payload_length32 = internal global i32 0, align 4
@hf_opa_rmpp_new_window_last = internal global i32 0, align 4
@ett_rmpp = internal global i32 0, align 4
@ei_opa_rmpp_undecoded = internal global %struct.expert_field zeroinitializer, align 4
@pref_attempt_rmpp_defragment = internal global i8 1, align 1
@.str.2277 = private unnamed_addr constant [5 x i8] c"%s%s\00", align 1
@.str.2278 = private unnamed_addr constant [13 x i8] c"RMPP (Empty)\00", align 1
@.str.2279 = private unnamed_addr constant [46 x i8] c" - Reliable Multi-Packet Transaction Protocol\00", align 1
@.str.2280 = private unnamed_addr constant [4 x i8] c" %s\00", align 1
@.str.2281 = private unnamed_addr constant [23 x i8] c"RMPP (Reserved 0x%02x)\00", align 1
@.str.2282 = private unnamed_addr constant [60 x i8] c"Parsing Disabled for RMPP Data Segments greater than 1 (%u)\00", align 1

; Function Attrs: null_pointer_is_valid sspstrong uwtable
define internal zeroext i1 @parse_RMPP(ptr noundef %0, ptr noundef %1, ptr noundef %2, ptr noundef %3, ptr noundef %4) #0 {
  %6 = alloca i1, align 1
  %7 = alloca ptr, align 8
  %8 = alloca ptr, align 8
  %9 = alloca ptr, align 8
  %10 = alloca ptr, align 8
  %11 = alloca ptr, align 8
  %12 = alloca i32, align 4
  %13 = alloca ptr, align 8
  %14 = alloca ptr, align 8
  %15 = alloca ptr, align 8
  %16 = alloca ptr, align 8
  %17 = alloca i32, align 4
  %18 = alloca i32, align 4
  store ptr %0, ptr %7, align 8
  store ptr %1, ptr %8, align 8
  store ptr %2, ptr %9, align 8
  store ptr %3, ptr %10, align 8
  store ptr %4, ptr %11, align 8
  call void @llvm.lifetime.start.p0(i64 4, ptr %12) #7
  %19 = load ptr, ptr %10, align 8
  %20 = load i32, ptr %19, align 4
  store i32 %20, ptr %12, align 4
  call void @llvm.lifetime.start.p0(i64 8, ptr %13) #7
  call void @llvm.lifetime.start.p0(i64 8, ptr %14) #7
  call void @llvm.lifetime.start.p0(i64 8, ptr %15) #7
  call void @llvm.lifetime.start.p0(i64 8, ptr %16) #7
  call void @llvm.lifetime.start.p0(i64 4, ptr %17) #7
  %21 = load ptr, ptr %7, align 8
  %22 = load i32, ptr @hf_opa_rmpp, align 4
  %23 = load ptr, ptr %9, align 8
  %24 = load i32, ptr %12, align 4
  %25 = call ptr @proto_tree_add_item(ptr noundef %21, i32 noundef %22, ptr noundef %23, i32 noundef %24, i32 noundef 12, i32 noundef 0)
  store ptr %25, ptr %13, align 8
  %26 = load ptr, ptr %13, align 8
  %27 = load i32, ptr @ett_rmpp, align 4
  %28 = call ptr @proto_item_add_subtree(ptr noundef %26, i32 noundef %27)
  store ptr %28, ptr %16, align 8
  %29 = load ptr, ptr %16, align 8
  %30 = load i32, ptr @hf_opa_rmpp_version, align 4
  %31 = load ptr, ptr %9, align 8
  %32 = load i32, ptr %12, align 4
  %33 = call ptr @proto_tree_add_item(ptr noundef %29, i32 noundef %30, ptr noundef %31, i32 noundef %32, i32 noundef 1, i32 noundef 0)
  %34 = load ptr, ptr %9, align 8
  %35 = load i32, ptr %12, align 4
  %36 = call zeroext i8 @tvb_get_uint8(ptr noundef %34, i32 noundef %35)
  %37 = load ptr, ptr %11, align 8
  %38 = getelementptr inbounds nuw %struct._RMPP, ptr %37, i32 0, i32 0
  store i8 %36, ptr %38, align 4
  %39 = load i32, ptr %12, align 4
  %40 = add i32 %39, 1
  store i32 %40, ptr %12, align 4
  %41 = load ptr, ptr %16, align 8
  %42 = load i32, ptr @hf_opa_rmpp_type, align 4
  %43 = load ptr, ptr %9, align 8
  %44 = load i32, ptr %12, align 4
  %45 = call ptr @proto_tree_add_item_ret_uint(ptr noundef %41, i32 noundef %42, ptr noundef %43, i32 noundef %44, i32 noundef 1, i32 noundef 0, ptr noundef %17)
  store ptr %45, ptr %14, align 8
  %46 = load i32, ptr %17, align 4
  %47 = trunc i32 %46 to i8
  %48 = load ptr, ptr %11, align 8
  %49 = getelementptr inbounds nuw %struct._RMPP, ptr %48, i32 0, i32 1
  store i8 %47, ptr %49, align 1
  %50 = load i32, ptr %12, align 4
  %51 = add i32 %50, 1
  store i32 %51, ptr %12, align 4
  %52 = load ptr, ptr %16, align 8
  %53 = load i32, ptr @hf_opa_rmpp_r_resp_time, align 4
  %54 = load ptr, ptr %9, align 8
  %55 = load i32, ptr %12, align 4
  %56 = call ptr @proto_tree_add_item(ptr noundef %52, i32 noundef %53, ptr noundef %54, i32 noundef %55, i32 noundef 1, i32 noundef 0)
  %57 = load ptr, ptr %16, align 8
  %58 = load i32, ptr @hf_opa_rmpp_flags_last, align 4
  %59 = load ptr, ptr %9, align 8
  %60 = load i32, ptr %12, align 4
  %61 = call ptr @proto_tree_add_item(ptr noundef %57, i32 noundef %58, ptr noundef %59, i32 noundef %60, i32 noundef 1, i32 noundef 0)
  %62 = load ptr, ptr %16, align 8
  %63 = load i32, ptr @hf_opa_rmpp_flags_first, align 4
  %64 = load ptr, ptr %9, align 8
  %65 = load i32, ptr %12, align 4
  %66 = call ptr @proto_tree_add_item(ptr noundef %62, i32 noundef %63, ptr noundef %64, i32 noundef %65, i32 noundef 1, i32 noundef 0)
  %67 = load ptr, ptr %16, align 8
  %68 = load i32, ptr @hf_opa_rmpp_flags_active, align 4
  %69 = load ptr, ptr %9, align 8
  %70 = load i32, ptr %12, align 4
  %71 = call ptr @proto_tree_add_item(ptr noundef %67, i32 noundef %68, ptr noundef %69, i32 noundef %70, i32 noundef 1, i32 noundef 0)
  %72 = load ptr, ptr %9, align 8
  %73 = load i32, ptr %12, align 4
  %74 = call zeroext i8 @tvb_get_uint8(ptr noundef %72, i32 noundef %73)
  %75 = load ptr, ptr %11, align 8
  %76 = getelementptr inbounds nuw %struct._RMPP, ptr %75, i32 0, i32 2
  store i8 %74, ptr %76, align 2
  %77 = load i32, ptr %12, align 4
  %78 = add i32 %77, 1
  store i32 %78, ptr %12, align 4
  %79 = load ptr, ptr %16, align 8
  %80 = load i32, ptr @hf_opa_rmpp_status, align 4
  %81 = load ptr, ptr %9, align 8
  %82 = load i32, ptr %12, align 4
  %83 = call ptr @proto_tree_add_item_ret_uint(ptr noundef %79, i32 noundef %80, ptr noundef %81, i32 noundef %82, i32 noundef 1, i32 noundef 0, ptr noundef %17)
  %84 = load i32, ptr %17, align 4
  %85 = trunc i32 %84 to i8
  %86 = load ptr, ptr %11, align 8
  %87 = getelementptr inbounds nuw %struct._RMPP, ptr %86, i32 0, i32 3
  store i8 %85, ptr %87, align 1
  %88 = load i32, ptr %12, align 4
  %89 = add i32 %88, 1
  store i32 %89, ptr %12, align 4
  %90 = load ptr, ptr %11, align 8
  %91 = getelementptr inbounds nuw %struct._RMPP, ptr %90, i32 0, i32 2
  %92 = load i8, ptr %91, align 2
  %93 = zext i8 %92 to i32
  %94 = and i32 %93, 1
  %95 = icmp ne i32 %94, 0
  br i1 %95, label %105, label %96

96:                                               ; preds = %5
  %97 = load ptr, ptr %11, align 8
  %98 = getelementptr inbounds nuw %struct._RMPP, ptr %97, i32 0, i32 1
  %99 = load i8, ptr %98, align 1
  %100 = zext i8 %99 to i32
  %101 = icmp eq i32 %100, 0
  br i1 %101, label %102, label %105

102:                                              ; preds = %96
  %103 = load ptr, ptr %13, align 8
  call void (ptr, ptr, ...) @proto_item_set_text(ptr noundef %103, ptr noundef @.str.2277, ptr noundef @.str.2278, ptr noundef @.str.2279)
  %104 = load ptr, ptr %14, align 8
  call void (ptr, ptr, ...) @proto_item_append_text(ptr noundef %104, ptr noundef @.str.2280, ptr noundef @.str.2278)
  br label %118

105:                                              ; preds = %96, %5
  %106 = load ptr, ptr %13, align 8
  %107 = load ptr, ptr %11, align 8
  %108 = getelementptr inbounds nuw %struct._RMPP, ptr %107, i32 0, i32 1
  %109 = load i8, ptr %108, align 1
  %110 = zext i8 %109 to i32
  %111 = call ptr @val_to_str(i32 noundef %110, ptr noundef @RMPP_Packet_Types, ptr noundef @.str.2281)
  call void (ptr, ptr, ...) @proto_item_set_text(ptr noundef %106, ptr noundef @.str.2277, ptr noundef %111, ptr noundef @.str.2279)
  %112 = load ptr, ptr %14, align 8
  %113 = load ptr, ptr %11, align 8
  %114 = getelementptr inbounds nuw %struct._RMPP, ptr %113, i32 0, i32 1
  %115 = load i8, ptr %114, align 1
  %116 = zext i8 %115 to i32
  %117 = call ptr @val_to_str(i32 noundef %116, ptr noundef @RMPP_Packet_Types, ptr noundef @.str.2281)
  call void (ptr, ptr, ...) @proto_item_append_text(ptr noundef %112, ptr noundef @.str.2280, ptr noundef %117)
  br label %118

118:                                              ; preds = %105, %102
  %119 = load ptr, ptr %11, align 8
  %120 = getelementptr inbounds nuw %struct._RMPP, ptr %119, i32 0, i32 5
  store i32 0, ptr %120, align 4
  %121 = load ptr, ptr %11, align 8
  %122 = getelementptr inbounds nuw %struct._RMPP, ptr %121, i32 0, i32 1
  %123 = load i8, ptr %122, align 1
  %124 = zext i8 %123 to i32
  switch i32 %124, label %210 [
    i32 0, label %125
    i32 1, label %140
    i32 2, label %180
    i32 3, label %195
    i32 4, label %195
  ]

125:                                              ; preds = %118
  %126 = load ptr, ptr %16, align 8
  %127 = load i32, ptr @hf_opa_rmpp_data1, align 4
  %128 = load ptr, ptr %9, align 8
  %129 = load i32, ptr %12, align 4
  %130 = call ptr @proto_tree_add_item(ptr noundef %126, i32 noundef %127, ptr noundef %128, i32 noundef %129, i32 noundef 4, i32 noundef 0)
  %131 = load i32, ptr %12, align 4
  %132 = add i32 %131, 4
  store i32 %132, ptr %12, align 4
  %133 = load ptr, ptr %16, align 8
  %134 = load i32, ptr @hf_opa_rmpp_data2, align 4
  %135 = load ptr, ptr %9, align 8
  %136 = load i32, ptr %12, align 4
  %137 = call ptr @proto_tree_add_item(ptr noundef %133, i32 noundef %134, ptr noundef %135, i32 noundef %136, i32 noundef 4, i32 noundef 0)
  %138 = load i32, ptr %12, align 4
  %139 = add i32 %138, 4
  store i32 %139, ptr %12, align 4
  br label %211

140:                                              ; preds = %118
  %141 = load ptr, ptr %16, align 8
  %142 = load i32, ptr @hf_opa_rmpp_segment_number, align 4
  %143 = load ptr, ptr %9, align 8
  %144 = load i32, ptr %12, align 4
  %145 = call ptr @proto_tree_add_item(ptr noundef %141, i32 noundef %142, ptr noundef %143, i32 noundef %144, i32 noundef 4, i32 noundef 0)
  store ptr %145, ptr %15, align 8
  %146 = load ptr, ptr %9, align 8
  %147 = load i32, ptr %12, align 4
  %148 = call i32 @tvb_get_ntohl(ptr noundef %146, i32 noundef %147)
  %149 = load ptr, ptr %11, align 8
  %150 = getelementptr inbounds nuw %struct._RMPP, ptr %149, i32 0, i32 4
  store i32 %148, ptr %150, align 4
  %151 = load i8, ptr @pref_attempt_rmpp_defragment, align 1, !range !8, !noundef !9
  %152 = trunc i8 %151 to i1
  br i1 %152, label %165, label %153

153:                                              ; preds = %140
  %154 = load ptr, ptr %11, align 8
  %155 = getelementptr inbounds nuw %struct._RMPP, ptr %154, i32 0, i32 4
  %156 = load i32, ptr %155, align 4
  %157 = icmp ugt i32 %156, 1
  br i1 %157, label %158, label %165

158:                                              ; preds = %153
  %159 = load ptr, ptr %8, align 8
  %160 = load ptr, ptr %15, align 8
  %161 = load ptr, ptr %11, align 8
  %162 = getelementptr inbounds nuw %struct._RMPP, ptr %161, i32 0, i32 4
  %163 = load i32, ptr %162, align 4
  %164 = call ptr (ptr, ptr, ptr, ptr, ...) @expert_add_info_format(ptr noundef %159, ptr noundef %160, ptr noundef @ei_opa_rmpp_undecoded, ptr noundef @.str.2282, i32 noundef %163)
  br label %165

165:                                              ; preds = %158, %153, %140
  %166 = load i32, ptr %12, align 4
  %167 = add i32 %166, 4
  store i32 %167, ptr %12, align 4
  %168 = load ptr, ptr %16, align 8
  %169 = load i32, ptr @hf_opa_rmpp_payload_length32, align 4
  %170 = load ptr, ptr %9, align 8
  %171 = load i32, ptr %12, align 4
  %172 = call ptr @proto_tree_add_item(ptr noundef %168, i32 noundef %169, ptr noundef %170, i32 noundef %171, i32 noundef 4, i32 noundef 0)
  %173 = load ptr, ptr %9, align 8
  %174 = load i32, ptr %12, align 4
  %175 = call i32 @tvb_get_ntohl(ptr noundef %173, i32 noundef %174)
  %176 = load ptr, ptr %11, align 8
  %177 = getelementptr inbounds nuw %struct._RMPP, ptr %176, i32 0, i32 5
  store i32 %175, ptr %177, align 4
  %178 = load i32, ptr %12, align 4
  %179 = add i32 %178, 4
  store i32 %179, ptr %12, align 4
  br label %211

180:                                              ; preds = %118
  %181 = load ptr, ptr %16, align 8
  %182 = load i32, ptr @hf_opa_rmpp_segment_number, align 4
  %183 = load ptr, ptr %9, align 8
  %184 = load i32, ptr %12, align 4
  %185 = call ptr @proto_tree_add_item(ptr noundef %181, i32 noundef %182, ptr noundef %183, i32 noundef %184, i32 noundef 4, i32 noundef 0)
  %186 = load i32, ptr %12, align 4
  %187 = add i32 %186, 4
  store i32 %187, ptr %12, align 4
  %188 = load ptr, ptr %16, align 8
  %189 = load i32, ptr @hf_opa_rmpp_new_window_last, align 4
  %190 = load ptr, ptr %9, align 8
  %191 = load i32, ptr %12, align 4
  %192 = call ptr @proto_tree_add_item(ptr noundef %188, i32 noundef %189, ptr noundef %190, i32 noundef %191, i32 noundef 4, i32 noundef 0)
  %193 = load i32, ptr %12, align 4
  %194 = add i32 %193, 4
  store i32 %194, ptr %12, align 4
  br label %211

195:                                              ; preds = %118, %118
  %196 = load ptr, ptr %16, align 8
  %197 = load i32, ptr @hf_opa_reserved32, align 4
  %198 = load ptr, ptr %9, align 8
  %199 = load i32, ptr %12, align 4
  %200 = call ptr @proto_tree_add_item(ptr noundef %196, i32 noundef %197, ptr noundef %198, i32 noundef %199, i32 noundef 4, i32 noundef 0)
  %201 = load i32, ptr %12, align 4
  %202 = add i32 %201, 4
  store i32 %202, ptr %12, align 4
  %203 = load ptr, ptr %16, align 8
  %204 = load i32, ptr @hf_opa_reserved32, align 4
  %205 = load ptr, ptr %9, align 8
  %206 = load i32, ptr %12, align 4
  %207 = call ptr @proto_tree_add_item(ptr noundef %203, i32 noundef %204, ptr noundef %205, i32 noundef %206, i32 noundef 4, i32 noundef 0)
  %208 = load i32, ptr %12, align 4
  %209 = add i32 %208, 4
  store i32 %209, ptr %12, align 4
  br label %211

210:                                              ; preds = %118
  store i1 false, ptr %6, align 1
  store i32 1, ptr %18, align 4
  br label %214

211:                                              ; preds = %195, %180, %165, %125
  %212 = load i32, ptr %12, align 4
  %213 = load ptr, ptr %10, align 8
  store i32 %212, ptr %213, align 4
  store i1 true, ptr %6, align 1
  store i32 1, ptr %18, align 4
  br label %214

214:                                              ; preds = %211, %210
  call void @llvm.lifetime.end.p0(i64 4, ptr %17) #7
  call void @llvm.lifetime.end.p0(i64 8, ptr %16) #7
  call void @llvm.lifetime.end.p0(i64 8, ptr %15) #7
  call void @llvm.lifetime.end.p0(i64 8, ptr %14) #7
  call void @llvm.lifetime.end.p0(i64 8, ptr %13) #7
  call void @llvm.lifetime.end.p0(i64 4, ptr %12) #7
  %215 = load i1, ptr %6, align 1
  ret i1 %215
}