; Function Attrs: null_pointer_is_valid sspstrong uwtable
define internal fastcc noundef zeroext i1 @parse_RMPP(ptr noundef %0, ptr noundef %1, ptr noundef %2, ptr noundef captures(none) %3, ptr noundef captures(none) initializes((0, 4), (8, 12)) %4) unnamed_addr #0 {
  %6 = alloca i32, align 4
  %7 = load i32, ptr %3, align 4
  call void @llvm.lifetime.start.p0(i64 4, ptr nonnull %6) #5
  %8 = load i32, ptr @hf_opa_rmpp, align 4
  %9 = tail call ptr @proto_tree_add_item(ptr noundef %0, i32 noundef %8, ptr noundef %2, i32 noundef %7, i32 noundef 12, i32 noundef 0)
  %10 = load i32, ptr @ett_rmpp, align 4
  %11 = tail call ptr @proto_item_add_subtree(ptr noundef %9, i32 noundef %10)
  %12 = load i32, ptr @hf_opa_rmpp_version, align 4
  %13 = tail call ptr @proto_tree_add_item(ptr noundef %11, i32 noundef %12, ptr noundef %2, i32 noundef %7, i32 noundef 1, i32 noundef 0)
  %14 = tail call zeroext i8 @tvb_get_uint8(ptr noundef %2, i32 noundef %7)
  store i8 %14, ptr %4, align 4
  %15 = add i32 %7, 1
  %16 = load i32, ptr @hf_opa_rmpp_type, align 4
  %17 = call ptr @proto_tree_add_item_ret_uint(ptr noundef %11, i32 noundef %16, ptr noundef %2, i32 noundef %15, i32 noundef 1, i32 noundef 0, ptr noundef nonnull %6)
  %18 = load i32, ptr %6, align 4
  %19 = trunc i32 %18 to i8
  %20 = getelementptr inbounds nuw i8, ptr %4, i64 1
  store i8 %19, ptr %20, align 1
  %21 = add i32 %7, 2
  %22 = load i32, ptr @hf_opa_rmpp_r_resp_time, align 4
  %23 = call ptr @proto_tree_add_item(ptr noundef %11, i32 noundef %22, ptr noundef %2, i32 noundef %21, i32 noundef 1, i32 noundef 0)
  %24 = load i32, ptr @hf_opa_rmpp_flags_last, align 4
  %25 = call ptr @proto_tree_add_item(ptr noundef %11, i32 noundef %24, ptr noundef %2, i32 noundef %21, i32 noundef 1, i32 noundef 0)
  %26 = load i32, ptr @hf_opa_rmpp_flags_first, align 4
  %27 = call ptr @proto_tree_add_item(ptr noundef %11, i32 noundef %26, ptr noundef %2, i32 noundef %21, i32 noundef 1, i32 noundef 0)
  %28 = load i32, ptr @hf_opa_rmpp_flags_active, align 4
  %29 = call ptr @proto_tree_add_item(ptr noundef %11, i32 noundef %28, ptr noundef %2, i32 noundef %21, i32 noundef 1, i32 noundef 0)
  %30 = call zeroext i8 @tvb_get_uint8(ptr noundef %2, i32 noundef %21)
  %31 = getelementptr inbounds nuw i8, ptr %4, i64 2
  store i8 %30, ptr %31, align 2
  %32 = add i32 %7, 3
  %33 = load i32, ptr @hf_opa_rmpp_status, align 4
  %34 = call ptr @proto_tree_add_item_ret_uint(ptr noundef %11, i32 noundef %33, ptr noundef %2, i32 noundef %32, i32 noundef 1, i32 noundef 0, ptr noundef nonnull %6)
  %35 = load i32, ptr %6, align 4
  %36 = trunc i32 %35 to i8
  %37 = getelementptr inbounds nuw i8, ptr %4, i64 3
  store i8 %36, ptr %37, align 1
  %38 = add i32 %7, 4
  %39 = load i8, ptr %31, align 2
  %40 = and i8 %39, 1
  %.not = icmp eq i8 %40, 0
  %.pre = load i8, ptr %20, align 1
  %41 = icmp eq i8 %.pre, 0
  %or.cond = select i1 %.not, i1 %41, i1 false
  br i1 %or.cond, label %42, label %43

42:                                               ; preds = %5
  call void (ptr, ptr, ...) @proto_item_set_text(ptr noundef %9, ptr noundef nonnull @.str.2277, ptr noundef nonnull @.str.2278, ptr noundef nonnull @.str.2279)
  br label %49

43:                                               ; preds = %5
  %44 = zext i8 %.pre to i32
  %45 = call ptr @val_to_str(i32 noundef %44, ptr noundef nonnull @RMPP_Packet_Types, ptr noundef nonnull @.str.2281)
  call void (ptr, ptr, ...) @proto_item_set_text(ptr noundef %9, ptr noundef nonnull @.str.2277, ptr noundef %45, ptr noundef nonnull @.str.2279)
  %46 = load i8, ptr %20, align 1
  %47 = zext i8 %46 to i32
  %48 = call ptr @val_to_str(i32 noundef %47, ptr noundef nonnull @RMPP_Packet_Types, ptr noundef nonnull @.str.2281)
  br label %49

49:                                               ; preds = %43, %42
  %.sink = phi ptr [ %48, %43 ], [ @.str.2278, %42 ]
  call void (ptr, ptr, ...) @proto_item_append_text(ptr noundef %17, ptr noundef nonnull @.str.2280, ptr noundef %.sink)
  %50 = getelementptr inbounds nuw i8, ptr %4, i64 8
  store i32 0, ptr %50, align 4
  %51 = load i8, ptr %20, align 1
  switch i8 %51, label %86 [
    i8 0, label %52
    i8 1, label %58
    i8 2, label %73
    i8 3, label %79
    i8 4, label %79
  ]

52:                                               ; preds = %49
  %53 = load i32, ptr @hf_opa_rmpp_data1, align 4
  %54 = call ptr @proto_tree_add_item(ptr noundef %11, i32 noundef %53, ptr noundef %2, i32 noundef %38, i32 noundef 4, i32 noundef 0)
  %55 = add i32 %7, 8
  %56 = load i32, ptr @hf_opa_rmpp_data2, align 4
  %57 = call ptr @proto_tree_add_item(ptr noundef %11, i32 noundef %56, ptr noundef %2, i32 noundef %55, i32 noundef 4, i32 noundef 0)
  br label %85

58:                                               ; preds = %49
  %59 = load i32, ptr @hf_opa_rmpp_segment_number, align 4
  %60 = call ptr @proto_tree_add_item(ptr noundef %11, i32 noundef %59, ptr noundef %2, i32 noundef %38, i32 noundef 4, i32 noundef 0)
  %61 = call i32 @tvb_get_ntohl(ptr noundef %2, i32 noundef %38)
  %62 = getelementptr inbounds nuw i8, ptr %4, i64 4
  store i32 %61, ptr %62, align 4
  %63 = load i8, ptr @pref_attempt_rmpp_defragment, align 1, !range !8, !noundef !9
  %64 = trunc nuw i8 %63 to i1
  %65 = icmp ult i32 %61, 2
  %or.cond.not = select i1 %64, i1 true, i1 %65
  br i1 %or.cond.not, label %68, label %66

66:                                               ; preds = %58
  %67 = call ptr (ptr, ptr, ptr, ptr, ...) @expert_add_info_format(ptr noundef %1, ptr noundef %60, ptr noundef nonnull @ei_opa_rmpp_undecoded, ptr noundef nonnull @.str.2282, i32 noundef %61)
  br label %68

68:                                               ; preds = %66, %58
  %69 = add i32 %7, 8
  %70 = load i32, ptr @hf_opa_rmpp_payload_length32, align 4
  %71 = call ptr @proto_tree_add_item(ptr noundef %11, i32 noundef %70, ptr noundef %2, i32 noundef %69, i32 noundef 4, i32 noundef 0)
  %72 = call i32 @tvb_get_ntohl(ptr noundef %2, i32 noundef %69)
  store i32 %72, ptr %50, align 4
  br label %85

73:                                               ; preds = %49
  %74 = load i32, ptr @hf_opa_rmpp_segment_number, align 4
  %75 = call ptr @proto_tree_add_item(ptr noundef %11, i32 noundef %74, ptr noundef %2, i32 noundef %38, i32 noundef 4, i32 noundef 0)
  %76 = add i32 %7, 8
  %77 = load i32, ptr @hf_opa_rmpp_new_window_last, align 4
  %78 = call ptr @proto_tree_add_item(ptr noundef %11, i32 noundef %77, ptr noundef %2, i32 noundef %76, i32 noundef 4, i32 noundef 0)
  br label %85

79:                                               ; preds = %49, %49
  %80 = load i32, ptr @hf_opa_reserved32, align 4
  %81 = call ptr @proto_tree_add_item(ptr noundef %11, i32 noundef %80, ptr noundef %2, i32 noundef %38, i32 noundef 4, i32 noundef 0)
  %82 = add i32 %7, 8
  %83 = load i32, ptr @hf_opa_reserved32, align 4
  %84 = call ptr @proto_tree_add_item(ptr noundef %11, i32 noundef %83, ptr noundef %2, i32 noundef %82, i32 noundef 4, i32 noundef 0)
  br label %85

85:                                               ; preds = %79, %73, %68, %52
  %.092 = add i32 %7, 12
  store i32 %.092, ptr %3, align 4
  br label %86

86:                                               ; preds = %49, %85
  %.0 = phi i1 [ true, %85 ], [ false, %49 ]
  call void @llvm.lifetime.end.p0(i64 4, ptr nonnull %6) #5
  ret i1 %.0
}